ccopy_reg
_reconstructor
p1
(cdebian_linux.config
ConfigCore
p2
c__builtin__
dict
p3
(dp4
(S'image'
S'armel'
p5
NS'ixp4xx'
tp6
(dp7
S'check-size'
p8
S'1441760'
p9
ss(S'image'
S'amd64'
p10
tp11
(dp12
S'configs'
p13
(lp14
S'kernelarch-x86/config'
p15
asS'bootloaders'
p16
(lp17
S'grub-pc'
p18
aS'extlinux'
p19
aS'lilo'
p20
ass(S'description'
S'mips'
p21
NS'4kc-malta'
tp22
(dp23
S'hardware'
p24
S'MIPS Malta'
p25
sS'hardware-long'
p26
S'MIPS Malta boards'
p27
ss(S'base'
g10
S'none'
p28
tp29
(dp30
S'flavours'
p31
(lp32
S'amd64'
p33
ass(S'image'
g5
NS'iop32x'
tp34
(dp35
S'check-size'
p36
S'1441784'
p37
ss(S'image'
S'sparc64'
p38
NS'sparc64'
tp39
(dp40
S'configs'
p41
(lp42
S'sparc/config.sparc64'
p43
ass(S'image'
S'ia64'
p44
tp45
(dp46
S'suggests'
p47
S'fdutils'
p48
sS'bootloaders'
p49
(lp50
S'elilo'
p51
ass(S'description'
g5
NS'kirkwood'
tp52
(dp53
S'hardware'
p54
S'Marvell Kirkwood'
p55
sS'hardware-long'
p56
S'Marvell Kirkwood based systems (SheevaPlug, QNAP TS-119/TS-219, etc)'
p57
ss(S'xen'
S'i386'
p58
S'none'
p59
S'amd64'
tp60
(dp61
S'flavours'
p62
(lp63
S'amd64'
p64
asS'dom0-support'
p65
I01
ss(S'description'
S'hppa'
p66
NS'parisc-smp'
tp67
(dp68
S'hardware'
p69
S'multiprocessor 32-bit PA-RISC'
p70
ss(S'build'
g5
NS'ixp4xx'
tp71
(dp72
S'image-file'
p73
S'arch/arm/boot/zImage'
p74
ss(S'description'
g10
g28
S'amd64'
tp75
(dp76
S'parts'
p77
(lp78
S'xen'
p79
ass(S'base'
p80
S'ppc64'
p81
S'none'
p82
tp83
(dp84
S'implicit-flavour'
p85
I01
sS'flavours'
p86
(lp87
S'powerpc64'
p88
ass(S'image'
g81
NS'powerpc64'
tp89
(dp90
S'configs'
p91
(lp92
S'powerpc/config.powerpc64'
p93
ass(S'base'
g66
NS'parisc64-smp'
tp94
(dp95
S'override-host-type'
p96
S'hppa64-linux-gnu'
p97
sS'cflags'
p98
S'-fno-cse-follow-jumps'
p99
ss(S'description'
g21
NS'r5k-ip32'
tp100
(dp101
S'hardware'
p102
S'SGI IP32'
p103
sS'hardware-long'
p104
S'SGI IP32 systems (O2)'
p105
ss(S'base'
S'alpha'
p106
tp107
(dp108
S'kernel-arch'
p109
S'alpha'
p110
sS'featuresets'
p111
(lp112
g82
asS'compiler'
p113
S'gcc-4.5'
p114
ss(S'description'
S's390'
p115
NS's390x'
tp116
(dp117
S'hardware'
p118
S'IBM zSeries'
p119
sS'parts'
p120
(lp121
S'reader'
p122
ass(g80
S'armhf'
p123
g82
tp124
(dp125
g85
I01
sg86
(lp126
S'mx5'
p127
aS'omap'
p128
ass(S'base'
g123
tp129
(dp130
S'kernel-arch'
p131
S'arm'
p132
sg111
(lp133
g82
ass(S'build'
g123
NS'mx5'
tp134
(dp135
S'image-file'
p136
S'arch/arm/boot/zImage'
p137
ss(S'build'
g123
NS'omap'
tp138
(dp139
S'image-file'
p140
S'arch/arm/boot/zImage'
p141
ss(S'base'
g58
S'rt'
tp142
(dp143
S'flavours'
p144
(lp145
S'686-pae'
p146
ass(S'image'
g38
NS'sparc64-smp'
tp147
(dp148
S'configs'
p149
(lp150
S'sparc/config.sparc64-smp'
p151
ass(S'description'
g106
NS'alpha-legacy'
tp152
(dp153
S'hardware'
p154
S'Alpha Legacy'
p155
sS'hardware-long'
p156
S'DEC Alpha systems with legacy kernel start address'
p157
ss(S'description'
S'm68k'
p158
NS'mvme16x'
tp159
(dp160
S'hardware'
p161
S'Motorola MVME162/6/7, MVME172/7'
p162
ss(S'base'
NS'rt'
tp163
(dp164
S'enabled'
p165
I01
ss(g80
S'powerpc'
p166
g82
tp167
(dp168
g85
I01
sg86
(lp169
S'powerpc'
p170
aS'powerpc-smp'
p171
aS'powerpc64'
p172
ass(S'image'
g166
tp173
(dp174
S'suggests'
p175
S'mkvmlinuz'
p176
ss(S'description'
g44
NS'itanium'
tp177
(dp178
S'hardware'
p179
S'Itanium'
p180
ss(S'description'
g166
NS'powerpc'
tp181
(dp182
S'hardware'
p183
S'uniprocessor 32-bit PowerPC'
p184
ss(S'base'
g10
S'rt'
tp185
(dp186
S'flavours'
p187
(lp188
S'amd64'
p189
ass(S'image'
g115
NS's390-tape'
tp190
(dp191
S'override-localversion'
p192
S's390'
p193
sS'type'
p194
S'plain-s390-tape'
p195
sS'initramfs'
p196
I00
ss(S'description'
g58
g59
S'amd64'
tp197
(dp198
S'parts'
p199
(lp200
S'xen'
p201
ass(S'image'
g58
NS'486'
tp202
(dp203
S'configs'
p204
(lp205
S'kernelarch-x86/config-arch-32'
p206
ass(S'description'
S'sparc'
p207
NS'sparc64'
tp208
(dp209
S'hardware'
p210
S'uniprocessor 64-bit UltraSPARC'
p211
ss(S'base'
g58
tp212
(dp213
S'kernel-arch'
p214
S'x86'
p215
sS'featuresets'
p216
(lp217
S'none'
p218
aS'rt'
p219
ass(S'description'
g166
NS'powerpc-smp'
tp220
(dp221
S'hardware'
p222
S'multiprocessor 32-bit PowerPC'
p223
ss(S'base'
S'mipsel'
p224
tp225
(dp226
S'kernel-arch'
p227
S'mips'
p228
sg111
(lp229
g82
ass(S'description'
g10
NS'amd64'
tp230
(dp231
S'hardware'
p232
S'64-bit PCs'
p233
sS'hardware-long'
p234
S'PCs with AMD64 or Intel 64 processors'
p235
ss(S'build'
g5
NS'orion5x'
tp236
(dp237
S'image-file'
p238
S'arch/arm/boot/zImage'
p239
ss(S'description'
g5
NS'ixp4xx'
tp240
(dp241
S'hardware'
p242
S'IXP4xx'
p243
sS'hardware-long'
p244
S'IXP4xx based systems (Linksys NSLU2, etc)'
p245
ss(S'description'
g158
NS'bvme6000'
tp246
(dp247
S'hardware'
p248
S'BVM BVME4000 and BVME6000'
p249
ss(S'description'
g158
NS'mac'
tp250
(dp251
S'hardware'
p252
S'Macintosh'
p253
ss(S'description'
g21
NS'octeon'
tp254
(dp255
S'hardware'
p256
S'Octeon'
p257
sS'hardware-long'
p258
S'Cavium Networks Octeon'
p259
ss(S'relations'
tp260
(dp261
S'initramfs-fallback'
p262
S'linux-initramfs-tool'
p263
sS'lilo'
p264
S'lilo (>= 22.8-8.2~)'
p265
sS'gcc-4.6'
p266
S'gcc-4.6'
p267
sS'gcc-4.5'
p268
S'gcc-4.5'
p269
sS'gcc-4.4'
p270
S'gcc-4.4'
p271
sS'elilo'
p272
S'elilo (>= 3.12-3.1~)'
p273
sS's390-tools'
p274
S's390-tools (>= 1.8.3-2~)'
p275
sS'initramfs-tools'
p276
S'initramfs-tools (>= 0.99~)'
p277
ss(S'description'
g5
NS'versatile'
tp278
(dp279
S'hardware'
p280
S'Versatile'
p281
sS'hardware-long'
p282
S'Versatile systems (PB, AB, Qemu)'
p283
ss(S'image'
g123
NS'omap'
tp284
(dp285
S'recommends'
p286
S'uboot-mkimage'
p287
ss(g80
S'sh4'
p288
g82
tp289
(dp290
g85
I01
sg86
(lp291
S'sh7751r'
p292
aS'sh7785lcr'
p293
ass(S'description'
g158
NS'mvme147'
tp294
(dp295
S'hardware'
p296
S'Motorola MVME147'
p297
ss(S'description'
g207
NS'sparc64-smp'
tp298
(dp299
S'hardware'
p300
S'multiprocessor 64-bit UltraSPARC'
p301
ss(S'base'
g5
tp302
(dp303
S'kernel-arch'
p304
S'arm'
p305
sg111
(lp306
g82
ass(S'description'
g224
NS'sb1a-bcm91480b'
tp307
(dp308
S'hardware'
p309
S'BCM91480B'
p310
sS'hardware-long'
p311
S'Broadcom BCM91480B systems (aka BigSur)'
p312
ss(S'image'
g207
NS'sparc32'
tp313
(dp314
S'image-postproc'
p315
S'sparc32-image-postproc'
p316
ss(S'version'
p317
tp318
(dp319
S'abiname'
p320
S'3.2.0-2'
p321
sS'source'
p322
V3.2.16-1
p323
ss(g80
g115
g82
tp324
(dp325
g85
I01
sg86
(lp326
S's390x'
p327
aS's390x-tape'
p328
ass(g80
S's390x'
p329
g82
tp330
(dp331
g85
I01
sg86
(lp332
S's390x'
p333
aS's390x-tape'
p334
ass(S'base'
g21
tp335
(dp336
S'kernel-arch'
p337
S'mips'
p338
sg111
(lp339
g82
ass(S'build'
g10
tp340
(dp341
S'debug-info'
p342
I01
ss(S'description'
g288
NS'sh7751r'
tp343
(dp344
S'hardware'
p345
S'sh7751r'
p346
sS'hardware-long'
p347
S'Renesas SH7751R R2D plus board'
p348
ss(S'build'
g5
NS'iop32x'
tp349
(dp350
S'image-file'
p351
S'arch/arm/boot/zImage'
p352
ss(S'description'
g158
NS'atari'
tp353
(dp354
S'hardware'
p355
S'Atari'
p356
ss(g80
g224
g82
tp357
(dp358
g85
I01
sg86
(lp359
S'r5k-cobalt'
p360
aS'sb1-bcm91250a'
p361
aS'sb1a-bcm91480b'
p362
aS'4kc-malta'
p363
aS'5kc-malta'
p364
aS'loongson-2f'
p365
ass(S'image'
g224
tp366
(dp367
S'configs'
p368
(lp369
S'kernelarch-mips/config'
p370
aS'mipsel/config'
p371
asS'initramfs'
p372
I00
ss(S'xen'
g58
g59
S'686-pae'
tp373
(dp374
S'flavours'
p375
(lp376
S'i386'
p377
aS'amd64'
p378
asS'dom0-support'
p379
I01
ss(S'description'
g123
NS'omap'
tp380
(dp381
S'hardware'
p382
S'TI OMAP3+'
p383
sS'hardware-long'
p384
S'Texas Instruments OMAP3 or OMAP4 based systems'
p385
ss(S'base'
g10
tp386
(dp387
S'kernel-arch'
p388
S'x86'
p389
sS'featuresets'
p390
(lp391
S'none'
p392
aS'rt'
p393
ass(S'base'
g44
tp394
(dp395
S'kernel-arch'
p396
S'ia64'
p397
sg111
(lp398
g82
ass(S'description'
g66
NS'parisc'
tp399
(dp400
S'hardware'
p401
S'32-bit PA-RISC'
p402
ss(S'build'
g58
NS'686-pae'
tp403
(dp404
S'debug-info'
p405
I01
ss(S'build'
g329
NS's390x-tape'
tp406
(dp407
S'modules'
p408
I00
ss(S'description'
g21
NS'5kc-malta'
tp409
(dp410
S'hardware'
p411
S'MIPS Malta (64-bit)'
p412
sS'hardware-long'
p413
S'MIPS Malta boards (64-bit)'
p414
ss(g80
g5
g82
tp415
(dp416
g85
I01
sg86
(lp417
S'iop32x'
p418
aS'ixp4xx'
p419
aS'kirkwood'
p420
aS'mv78xx0'
p421
aS'orion5x'
p422
aS'versatile'
p423
ass(S'image'
g224
NS'sb1-bcm91250a'
tp424
(dp425
S'configs'
p426
(lp427
S'mips/config.sb1-bcm91250a'
p428
ass(S'description'
g329
NS's390x'
tp429
(dp430
S'hardware'
p431
S'IBM zSeries'
p432
sS'parts'
p433
(lp434
S'reader'
p435
ass(S'image'
g58
NS'amd64'
tp436
(dp437
S'configs'
p438
(lp439
S'kernelarch-x86/config-arch-64'
p440
asS'recommends'
p441
S'libc6-i686'
p442
ss(S'description'
g58
NS'486'
tp443
(dp444
S'hardware'
p445
S'older PCs'
p446
sS'parts'
p447
(lp448
S'up'
p449
asS'hardware-long'
p450
S'PCs with a single processor not supporting PAE'
p451
ss(S'description'
g58
tp452
(dp453
S'part-long-pae'
p454
S'This kernel requires PAE (Physical Address Extension).\nThis feature is supported by the Intel Pentium Pro/II/III/4/4M/D, Xeon,\nCore and Atom; AMD Geode NX, Athlon (K7), Duron, Opteron, Sempron,\nTurion or Phenom; Transmeta Efficeon; VIA C7; and some other processors.'
p455
ss(S'image'
g123
tp456
(dp457
S'suggests'
p458
S'fdutils'
p459
sS'configs'
p460
(lp461
S'armel/config'
p462
aS'armhf/config'
p463
ass(S'xen'
g10
g28
S'amd64'
tp464
(dp465
S'flavours'
p466
(lp467
S'amd64'
p468
asS'dom0-support'
p469
I01
ss(S'image'
g5
tp470
(dp471
S'suggests'
p472
S'fdutils'
p473
ss(S'image'
g115
tp474
(dp475
S'bootloaders'
p476
(lp477
S's390-tools'
p478
ass(S'description'
g5
NS'mv78xx0'
tp479
(dp480
S'hardware'
p481
S'Marvell 78xx0'
p482
sS'hardware-long'
p483
S'Marvell DB-78xx0-BP Development Board'
p484
ss(S'abi'
g329
tp485
(dp486
S'ignore-changes'
p487
(lp488
S'arch_pick_mmap_layout'
p489
ass(S'image'
g66
tp490
(dp491
S'suggests'
p492
S'palo'
p493
ss(S'image'
g5
NS'kirkwood'
tp494
(dp495
S'check-size'
p496
S'2097080'
p497
sS'recommends'
p498
S'uboot-mkimage'
p499
ss(S'relations'
g66
tp500
(dp501
S'gcc-4.4'
p502
S'gcc-4.4, binutils-hppa64, gcc-4.4-hppa64'
p503
ss(S'abi'
g115
tp504
(dp505
S'ignore-changes'
p506
(lp507
S'arch_pick_mmap_layout'
p508
ass(S'description'
g5
NS'iop32x'
tp509
(dp510
S'hardware'
p511
S'IOP32x'
p512
sS'hardware-long'
p513
S'IOP32x based systems (Thecus N2100, etc)'
p514
ss(S'description'
g115
NS's390'
tp515
(dp516
S'hardware'
p517
S'IBM S/390'
p518
sS'parts'
p519
(lp520
S'reader'
p521
ass(g80
g66
g82
tp522
(dp523
g85
I01
sg86
(lp524
S'parisc'
p525
aS'parisc-smp'
p526
aS'parisc64'
p527
aS'parisc64-smp'
p528
ass(S'description'
g106
NS'alpha-smp'
tp529
(dp530
S'hardware'
p531
S'Alpha SMP'
p532
sS'hardware-long'
p533
S'DEC Alpha SMP systems with extended kernel start address (Wildfire, Titan, Marvel)'
p534
ss(S'image'
g106
tp535
(dp536
S'suggests'
p537
S'aboot, fdutils'
p538
ss(S'base'
g38
tp539
(dp540
S'kernel-arch'
p541
S'sparc'
p542
sg111
(lp543
g82
ass(S'base'
g329
tp544
(dp545
S'kernel-arch'
p546
S's390'
p547
sg111
(lp548
g82
ass(S'base'
g115
tp549
(dp550
S'kernel-arch'
p551
S's390'
p552
sg111
(lp553
g82
ass(S'base'
g66
NS'parisc64'
tp554
(dp555
S'override-host-type'
p556
S'hppa64-linux-gnu'
p557
sS'cflags'
p558
S'-fno-cse-follow-jumps'
p559
ss(S'description'
g329
NS's390x-tape'
tp560
(dp561
S'hardware'
p562
S'IBM zSeries'
p563
sS'parts'
p564
(lp565
S'tape'
p566
ass(S'description'
g288
NS'sh7785lcr'
tp567
(dp568
S'hardware'
p569
S'sh7785lcr'
p570
sS'hardware-long'
p571
S'Renesas SH7785 reference board'
p572
ss(S'image'
g81
tp573
(dp574
S'suggests'
p575
S'mkvmlinuz'
p576
sS'configs'
p577
(lp578
S'powerpc/config'
p579
ass(S'image'
g21
tp580
(dp581
S'configs'
p582
(lp583
S'kernelarch-mips/config'
p584
aS'mips/config'
p585
asS'initramfs'
p586
I00
ss(S'image'
g58
tp587
(dp588
S'configs'
p589
(lp590
S'kernelarch-x86/config'
p591
asS'bootloaders'
p592
(lp593
S'grub-pc'
p594
aS'extlinux'
p595
aS'lilo'
p596
ass(S'description'
g158
NS'amiga'
tp597
(dp598
S'hardware'
p599
S'Amiga'
p600
ss(g80
g207
g82
tp601
(dp602
g85
I01
sg86
(lp603
S'sparc64'
p604
aS'sparc64-smp'
p605
ass(S'description'
g106
NS'alpha-generic'
tp606
(dp607
S'hardware'
p608
S'Alpha'
p609
sS'hardware-long'
p610
S'DEC Alpha systems with extended kernel start address (Wildfire, Titan, Marvel)'
p611
ss(g80
g106
g82
tp612
(dp613
g85
I01
sg86
(lp614
S'alpha-generic'
p615
aS'alpha-smp'
p616
aS'alpha-legacy'
p617
ass(S'image'
g166
NS'powerpc-smp'
tp618
(dp619
S'configs'
p620
(lp621
S'powerpc/config.powerpc'
p622
aS'powerpc/config.powerpc-smp'
p623
ass(g80
g44
g82
tp624
(dp625
g85
I01
sg86
(lp626
S'itanium'
p627
aS'mckinley'
p628
ass(S'base'
g81
tp629
(dp630
S'kernel-arch'
p631
S'powerpc'
p632
sg111
(lp633
g82
ass(g80
g21
g82
tp634
(dp635
g85
I01
sg86
(lp636
S'r4k-ip22'
p637
aS'r5k-ip32'
p638
aS'sb1-bcm91250a'
p639
aS'sb1a-bcm91480b'
p640
aS'4kc-malta'
p641
aS'5kc-malta'
p642
aS'octeon'
p643
ass(S'image'
g5
NS'orion5x'
tp644
(dp645
S'check-size'
p646
S'1572792'
p647
sS'recommends'
p648
S'uboot-mkimage'
p649
ss(S'description'
g38
NS'sparc64-smp'
tp650
(dp651
S'hardware'
p652
S'multiprocessor 64-bit UltraSPARC'
p653
ss(S'description'
g115
NS's390-tape'
tp654
(dp655
S'hardware'
p656
S'IBM S/390'
p657
sS'parts'
p658
(lp659
S'tape'
p660
ass(S'image'
g10
NS'amd64'
tp661
(dp662
S'configs'
p663
(lp664
S'kernelarch-x86/config-arch-64'
p665
ass(S'image'
g158
tp666
(dp667
S'suggests'
p668
S'vmelilo, fdutils'
p669
sS'initramfs'
p670
I00
ss(S'description'
g115
tp671
(dp672
S'part-short-tape'
p673
S'IPL from tape'
p674
sS'part-long-tape'
p675
S'This kernel has support to IPL (boot) from a tape.'
p676
sS'part-long-reader'
p677
S'This kernel has support to IPL (boot) from a VM reader or DASD device.'
p678
ss(S'description'
g21
NS'sb1-bcm91250a'
tp679
(dp680
S'hardware'
p681
S'BCM91250A'
p682
sS'hardware-long'
p683
S'Broadcom BCM91250A systems (aka SWARM)'
p684
ss(S'image'
g224
NS'sb1a-bcm91480b'
tp685
(dp686
S'configs'
p687
(lp688
S'mips/config.sb1a-bcm91480b'
p689
ass(S'description'
g21
NS'r4k-ip22'
tp690
(dp691
S'hardware'
p692
S'SGI IP22'
p693
sS'hardware-long'
p694
S'SGI IP22 systems (Indy, Indigo2)'
p695
ss(S'description'
g66
NS'parisc64-smp'
tp696
(dp697
S'hardware'
p698
S'multiprocessor 64-bit PA-RISC'
p699
ss(S'image'
g288
tp700
(dp701
S'suggests'
p702
S'fdutils'
p703
ss(S'build'
g288
NS'sh7751r'
tp704
(dp705
S'image-file'
p706
S'arch/sh/boot/zImage'
p707
ss(S'base'
g66
tp708
(dp709
S'kernel-arch'
p710
S'parisc'
p711
sg111
(lp712
g82
asS'compiler'
p713
S'gcc-4.4'
p714
ss(S'base'
g288
tp715
(dp716
S'kernel-arch'
p717
S'sh'
p718
sg111
(lp719
g82
ass(S'image'
g329
NS's390x-tape'
tp720
(dp721
S'configs'
p722
(lp723
S's390/config.s390x-tape'
p724
asS'override-localversion'
p725
S's390x'
p726
sS'type'
p727
S'plain-s390-tape'
p728
sS'initramfs'
p729
I00
ss(S'image'
g207
tp730
(dp731
S'suggests'
p732
S'silo, fdutils'
p733
ss(S'description'
tp734
(dp735
S'part-long-up'
p736
S'This kernel is not suitable for SMP (multi-processor,\nmulti-core or hyper-threaded) systems.'
p737
sS'part-long-xen'
p738
S'This kernel also runs on a Xen hypervisor.\nIt supports both privileged (dom0) and unprivileged (domU) operation.'
p739
ss(S'description'
g123
NS'mx5'
tp740
(dp741
S'hardware'
p742
S'Freescale i.MX51'
p743
sS'hardware-long'
p744
S'Support for Freescale i.MX51 family of processors'
p745
ss(S'description'
g224
NS'5kc-malta'
tp746
(dp747
S'hardware'
p748
S'MIPS Malta (64-bit)'
p749
sS'hardware-long'
p750
S'MIPS Malta boards (64-bit)'
p751
ss(S'description'
g58
g59
S'686-pae'
tp752
(dp753
S'parts'
p754
(lp755
S'xen'
p756
ass(S'image'
g38
tp757
(dp758
S'suggests'
p759
S'silo, fdutils'
p760
sS'configs'
p761
(lp762
S'sparc/config'
p763
ass(S'image'
g224
NS'5kc-malta'
tp764
(dp765
S'configs'
p766
(lp767
S'mips/config.5kc-malta'
p768
ass(S'base'
g166
tp769
(dp770
S'kernel-arch'
p771
S'powerpc'
p772
sg111
(lp773
g82
ass(S'description'
g224
NS'sb1-bcm91250a'
tp774
(dp775
S'hardware'
p776
S'BCM91250A'
p777
sS'hardware-long'
p778
S'Broadcom BCM91250A systems (aka SWARM)'
p779
ss(S'description'
g5
NS'orion5x'
tp780
(dp781
S'hardware'
p782
S'Marvell Orion'
p783
sS'hardware-long'
p784
S'Marvell Orion 5181, 5182 and 5281 based systems (QNAP TS-109/TS-209, etc)'
p785
ss(S'build'
g115
NS's390-tape'
tp786
(dp787
S'modules'
p788
I00
ss(S'description'
g44
NS'mckinley'
tp789
(dp790
S'hardware'
p791
S'Itanium II'
p792
ss(S'description'
NS'rt'
p793
tp794
(dp795
S'part-long-rt'
p796
S'This kernel includes the PREEMPT_RT realtime patch set.'
p797
sS'parts'
p798
(lp799
S'rt'
p800
asS'part-short-rt'
p801
S'PREEMPT_RT'
p802
ss(S'description'
g38
NS'sparc64'
tp803
(dp804
S'hardware'
p805
S'uniprocessor 64-bit UltraSPARC'
p806
ss(S'description'
g224
NS'4kc-malta'
tp807
(dp808
S'hardware'
p809
S'MIPS Malta'
p810
sS'hardware-long'
p811
S'MIPS Malta boards'
p812
ss(S'description'
g329
tp813
(dp814
S'part-short-tape'
p815
S'IPL from tape'
p816
sS'part-long-tape'
p817
S'This kernel has support to IPL (boot) from a tape.'
p818
sS'part-long-reader'
p819
S'This kernel has support to IPL (boot) from a VM reader or DASD device.'
p820
ss(S'image'
g329
NS's390x'
tp821
(dp822
S'configs'
p823
(lp824
S's390/config.s390x'
p825
ass(S'abi'
tp826
(dp827
S'abiname'
p828
S'2'
sS'ignore-changes'
p829
(lp830
S'module:drivers/net/wireless/ath/ath9k/*'
p831
aS'module:drivers/hv/*'
p832
ass(S'description'
g58
NS'amd64'
tp833
(dp834
S'hardware'
p835
S'64-bit PCs'
p836
sS'hardware-long'
p837
S'PCs with AMD64 or Intel 64 processors'
p838
ss(S'image'
g115
NS's390x-tape'
tp839
(dp840
S'override-localversion'
p841
S's390x'
p842
sS'type'
p843
S'plain-s390-tape'
p844
sS'initramfs'
p845
I00
ss(S'description'
g21
NS'sb1a-bcm91480b'
tp846
(dp847
S'hardware'
p848
S'BCM91480B'
p849
sS'hardware-long'
p850
S'Broadcom BCM91480B systems (aka BigSur)'
p851
ss(g80
g158
g82
tp852
(dp853
g85
I01
sg86
(lp854
S'amiga'
p855
aS'atari'
p856
aS'bvme6000'
p857
aS'mac'
p858
aS'mvme147'
p859
aS'mvme16x'
p860
ass(S'base'
g58
g59
tp861
(dp862
S'flavours'
p863
(lp864
S'486'
p865
aS'686-pae'
p866
aS'amd64'
p867
ass(S'base'
tp868
(dp869
S'arches'
p870
(lp871
S'alpha'
p872
aS'amd64'
p873
aS'armel'
p874
aS'armhf'
p875
aS'hppa'
p876
aS'i386'
p877
aS'ia64'
p878
aS'm68k'
p879
aS'mips'
p880
aS'mipsel'
p881
aS'powerpc'
p882
aS'ppc64'
p883
aS's390'
p884
aS's390x'
p885
aS'sh4'
p886
aS'sparc'
p887
aS'sparc64'
p888
asS'featuresets'
p889
(lp890
S'none'
p891
aS'rt'
p892
asS'compiler'
p893
S'gcc-4.6'
p894
ss(S'description'
g66
NS'parisc64'
tp895
(dp896
S'hardware'
p897
S'64-bit PA-RISC'
p898
ss(S'build'
g5
NS'kirkwood'
tp899
(dp900
S'image-file'
p901
S'arch/arm/boot/zImage'
p902
ss(S'build'
g5
NS'mv78xx0'
tp903
(dp904
S'image-file'
p905
S'arch/arm/boot/zImage'
p906
ss(S'abi'
Ng793
tp907
(dp908
S'ignore-changes'
p909
(lp910
S'*'
ass(S'build'
g115
NS's390x-tape'
tp911
(dp912
S'modules'
p913
I00
ss(S'base'
g207
tp914
(dp915
S'kernel-arch'
p916
S'sparc'
p917
sg111
(lp918
g82
ass(S'base'
g158
tp919
(dp920
S'kernel-arch'
p921
S'm68k'
p922
sg111
(lp923
g82
asS'cflags'
p924
S'-ffreestanding'
p925
sS'compiler'
p926
S'gcc-4.6'
p927
ss(S'image'
tp928
(dp929
S'initramfs-generators'
p930
(lp931
S'initramfs-tools'
p932
aS'initramfs-fallback'
p933
asS'type'
p934
S'plain'
p935
ss(S'description'
g224
NS'loongson-2f'
tp936
(dp937
S'hardware'
p938
S'Loongson 2F'
p939
sS'hardware-long'
p940
S'Lemote Loongson 2F systems'
p941
ss(g80
g38
g82
tp942
(dp943
g85
I01
sg86
(lp944
S'sparc64'
p945
aS'sparc64-smp'
p946
ass(S'description'
g81
NS'powerpc64'
tp947
(dp948
S'hardware'
p949
S'64-bit PowerPC'
p950
ss(S'build'
g288
NS'sh7785lcr'
tp951
(dp952
S'image-file'
p953
S'arch/sh/boot/zImage'
p954
ss(S'image'
g224
NS'4kc-malta'
tp955
(dp956
S'configs'
p957
(lp958
S'mips/config.4kc-malta'
p959
ass(S'image'
g288
NS'sh7785lcr'
tp960
(dp961
S'check-size'
p962
S'4194304'
p963
sS'recommends'
p964
S'uboot-mkimage'
p965
ss(S'description'
g58
NS'686-pae'
tp966
(dp967
S'hardware'
p968
S'modern PCs'
p969
sS'parts'
p970
(lp971
S'pae'
p972
asS'hardware-long'
p973
S'PCs with one or more processors supporting PAE'
p974
ss(S'description'
g166
NS'powerpc64'
tp975
(dp976
S'hardware'
p977
S'64-bit PowerPC'
p978
ss(S'description'
g207
NS'sparc32'
tp979
(dp980
S'hardware'
p981
S'uniprocessor sparc32 (sun4m)'
p982
ss(S'image'
g329
tp983
(dp984
S'configs'
p985
(lp986
S's390/config'
p987
asS'bootloaders'
p988
(lp989
S's390-tools'
p990
ass(S'image'
g58
NS'686-pae'
tp991
(dp992
S'configs'
p993
(lp994
S'kernelarch-x86/config-arch-32'
p995
asS'recommends'
p996
S'libc6-i686'
p997
ss(S'description'
g224
NS'r5k-cobalt'
tp998
(dp999
S'hardware'
p1000
S'Cobalt'
p1001
sS'hardware-long'
p1002
S'Cobalt systems (Qube, RaQ, Qube2, RaQ2)'
p1003
ss(S'description'
g115
NS's390x-tape'
tp1004
(dp1005
S'hardware'
p1006
S'IBM zSeries'
p1007
sS'parts'
p1008
(lp1009
S'tape'
p1010
asstRp1011
.